target datalayout = "e-m:e-p270:32:32-p271:32:32-p272:64:64-i64:64-i128:128-f80:128-n8:16:32:64-S128"
target triple = "x86_64-unknown-linux-gnu"

%"class.icu_75::MaybeStackArray" = type <{ ptr, i32, i8, [40 x i8], [3 x i8] }>
%"class.icu_75::units::UnitPreferenceMetadata" = type { [8 x i8], %"class.icu_75::CharString", %"class.icu_75::CharString", %"class.icu_75::CharString", i32, i32 }
%"class.icu_75::CharString" = type { %"class.icu_75::MaybeStackArray", i32, [4 x i8] }

; Function Attrs: mustprogress nounwind uwtable
define weak_odr noundef ptr @_ZNK6icu_7515MaybeStackArrayIcLi40EE8getAliasEv(ptr noundef nonnull align 8 dereferenceable(53) %this) #0 comdat align 2 {
entry:
  %this.addr = alloca ptr, align 8
  store ptr %this, ptr %this.addr, align 8
  %this1 = load ptr, ptr %this.addr, align 8
  %ptr = getelementptr inbounds %"class.icu_75::MaybeStackArray", ptr %this1, i32 0, i32 0
  %0 = load ptr, ptr %ptr, align 8
  ret ptr %0
}

; Function Attrs: mustprogress nounwind uwtable
define linkonce_odr noundef ptr @_ZNK6icu_7510CharString4dataEv(ptr noundef nonnull align 8 dereferenceable(60) %this) #0 comdat align 2 {
entry:
  %this.addr = alloca ptr, align 8
  store ptr %this, ptr %this.addr, align 8
  %this1 = load ptr, ptr %this.addr, align 8
  %buffer = getelementptr inbounds %"class.icu_75::CharString", ptr %this1, i32 0, i32 0
  %call = call noundef ptr @_ZNK6icu_7515MaybeStackArrayIcLi40EE8getAliasEv(ptr noundef nonnull align 8 dereferenceable(53) %buffer)
  ret ptr %call
}

; Function Attrs: mustprogress uwtable
define noundef i32 @_ZNK6icu_755units22UnitPreferenceMetadata9compareToERKS1_PbS4_S4_(ptr noundef nonnull align 8 dereferenceable(208) %this, ptr noundef nonnull align 8 dereferenceable(208) %other, ptr noundef %foundCategory, ptr noundef %foundUsage, ptr noundef %foundRegion) #1 align 2 {
entry:
  %this.addr = alloca ptr, align 8
  %other.addr = alloca ptr, align 8
  %foundCategory.addr = alloca ptr, align 8
  %foundUsage.addr = alloca ptr, align 8
  %foundRegion.addr = alloca ptr, align 8
  %cmp = alloca i32, align 4
  store ptr %this, ptr %this.addr, align 8
  store ptr %other, ptr %other.addr, align 8
  store ptr %foundCategory, ptr %foundCategory.addr, align 8
  store ptr %foundUsage, ptr %foundUsage.addr, align 8
  store ptr %foundRegion, ptr %foundRegion.addr, align 8
  %this1 = load ptr, ptr %this.addr, align 8
  %category = getelementptr inbounds %"class.icu_75::units::UnitPreferenceMetadata", ptr %this1, i32 0, i32 1
  %call = call noundef ptr @_ZNK6icu_7510CharString4dataEv(ptr noundef nonnull align 8 dereferenceable(60) %category)
  %0 = load ptr, ptr %other.addr, align 8
  %category2 = getelementptr inbounds %"class.icu_75::units::UnitPreferenceMetadata", ptr %0, i32 0, i32 1
  %call3 = call noundef ptr @_ZNK6icu_7510CharString4dataEv(ptr noundef nonnull align 8 dereferenceable(60) %category2)
  %call4 = call i32 @strcmp(ptr noundef %call, ptr noundef %call3) #11
  store i32 %call4, ptr %cmp, align 4
  %1 = load i32, ptr %cmp, align 4
  %cmp5 = icmp eq i32 %1, 0
  br i1 %cmp5, label %if.then, label %if.end

if.then:                                          ; preds = %entry
  %2 = load ptr, ptr %foundCategory.addr, align 8
  store i8 1, ptr %2, align 1
  %usage = getelementptr inbounds %"class.icu_75::units::UnitPreferenceMetadata", ptr %this1, i32 0, i32 2
  %call6 = call noundef ptr @_ZNK6icu_7510CharString4dataEv(ptr noundef nonnull align 8 dereferenceable(60) %usage)
  %3 = load ptr, ptr %other.addr, align 8
  %usage7 = getelementptr inbounds %"class.icu_75::units::UnitPreferenceMetadata", ptr %3, i32 0, i32 2
  %call8 = call noundef ptr @_ZNK6icu_7510CharString4dataEv(ptr noundef nonnull align 8 dereferenceable(60) %usage7)
  %call9 = call i32 @strcmp(ptr noundef %call6, ptr noundef %call8) #11
  store i32 %call9, ptr %cmp, align 4
  br label %if.end

if.end:                                           ; preds = %if.then, %entry
  %4 = load i32, ptr %cmp, align 4
  %cmp10 = icmp eq i32 %4, 0
  br i1 %cmp10, label %if.then11, label %if.end16

if.then11:                                        ; preds = %if.end
  %5 = load ptr, ptr %foundUsage.addr, align 8
  store i8 1, ptr %5, align 1
  %region = getelementptr inbounds %"class.icu_75::units::UnitPreferenceMetadata", ptr %this1, i32 0, i32 3
  %call12 = call noundef ptr @_ZNK6icu_7510CharString4dataEv(ptr noundef nonnull align 8 dereferenceable(60) %region)
  %6 = load ptr, ptr %other.addr, align 8
  %region13 = getelementptr inbounds %"class.icu_75::units::UnitPreferenceMetadata", ptr %6, i32 0, i32 3
  %call14 = call noundef ptr @_ZNK6icu_7510CharString4dataEv(ptr noundef nonnull align 8 dereferenceable(60) %region13)
  %call15 = call i32 @strcmp(ptr noundef %call12, ptr noundef %call14) #11
  store i32 %call15, ptr %cmp, align 4
  br label %if.end16

if.end16:                                         ; preds = %if.then11, %if.end
  %7 = load i32, ptr %cmp, align 4
  %cmp17 = icmp eq i32 %7, 0
  br i1 %cmp17, label %if.then18, label %if.end19

if.then18:                                        ; preds = %if.end16
  %8 = load ptr, ptr %foundRegion.addr, align 8
  store i8 1, ptr %8, align 1
  br label %if.end19

if.end19:                                         ; preds = %if.then18, %if.end16
  %9 = load i32, ptr %cmp, align 4
  ret i32 %9
}