; Function Attrs: mustprogress nofree nounwind willreturn memory(read, argmem: readwrite, inaccessiblemem: none) uwtable
define noundef i32 @_ZNK6icu_755units22UnitPreferenceMetadata9compareToERKS1_PbS4_S4_(ptr nocapture noundef nonnull readonly align 8 dereferenceable(208) %this, ptr nocapture noundef nonnull readonly align 8 dereferenceable(208) %other, ptr nocapture noundef writeonly %foundCategory, ptr nocapture noundef writeonly %foundUsage, ptr nocapture noundef writeonly %foundRegion) local_unnamed_addr #8 align 2 {
entry:
  %category = getelementptr inbounds i8, ptr %this, i64 8
  %0 = load ptr, ptr %category, align 8
  %category2 = getelementptr inbounds i8, ptr %other, i64 8
  %1 = load ptr, ptr %category2, align 8
  %call4 = tail call i32 @strcmp(ptr noundef nonnull dereferenceable(1) %0, ptr noundef nonnull dereferenceable(1) %1) #18
  %cmp5 = icmp eq i32 %call4, 0
  br i1 %cmp5, label %if.end, label %if.end19

if.end:                                           ; preds = %entry
  store i8 1, ptr %foundCategory, align 1
  %usage = getelementptr inbounds i8, ptr %this, i64 72
  %2 = load ptr, ptr %usage, align 8
  %usage7 = getelementptr inbounds i8, ptr %other, i64 72
  %3 = load ptr, ptr %usage7, align 8
  %call9 = tail call i32 @strcmp(ptr noundef nonnull dereferenceable(1) %2, ptr noundef nonnull dereferenceable(1) %3) #18
  %cmp10 = icmp eq i32 %call9, 0
  br i1 %cmp10, label %if.end16, label %if.end19

if.end16:                                         ; preds = %if.end
  store i8 1, ptr %foundUsage, align 1
  %region = getelementptr inbounds i8, ptr %this, i64 136
  %4 = load ptr, ptr %region, align 8
  %region13 = getelementptr inbounds i8, ptr %other, i64 136
  %5 = load ptr, ptr %region13, align 8
  %call15 = tail call i32 @strcmp(ptr noundef nonnull dereferenceable(1) %4, ptr noundef nonnull dereferenceable(1) %5) #18
  %cmp17 = icmp eq i32 %call15, 0
  br i1 %cmp17, label %if.then18, label %if.end19

if.then18:                                        ; preds = %if.end16
  store i8 1, ptr %foundRegion, align 1
  br label %if.end19

if.end19:                                         ; preds = %entry, %if.end, %if.then18, %if.end16
  %cmp.110 = phi i32 [ 0, %if.then18 ], [ %call15, %if.end16 ], [ %call9, %if.end ], [ %call4, %entry ]
  ret i32 %cmp.110
}